target datalayout = "e-m:e-p270:32:32-p271:32:32-p272:64:64-i64:64-i128:128-f80:128-n8:16:32:64-S128"
target triple = "x86_64-pc-linux-gnu"

%struct.AVCodecContext = type { ptr, i32, i32, ptr, i32, i32, ptr, ptr, ptr, i64, i32, i32, ptr, i32, %struct.AVRational, %struct.AVRational, %struct.AVRational, i32, i32, i32, i32, i32, %struct.AVRational, i32, i32, i32, i32, i32, i32, i32, i32, i32, i32, i32, ptr, ptr, i32, float, float, float, float, float, float, float, float, float, i32, i32, i32, i32, i32, i32, i32, i32, i32, i32, i32, i32, ptr, ptr, ptr, i32, i32, i32, i32, i32, i32, i32, i32, i32, i32, %struct.AVChannelLayout, i32, i32, i32, i32, i32, i32, i32, i32, ptr, i32, i32, i32, float, float, i32, i32, i32, i32, i32, ptr, i64, i64, float, float, i32, i32, ptr, ptr, i32, i32, i32, i32, i32, ptr, ptr, ptr, ptr, i32, i32, [8 x i64], i32, i32, i32, i32, i32, i32, i32, ptr, ptr, i32, i32, i32, i32, i32, i32, i32, i32, i32, i32, ptr, ptr, i32, i32, ptr, ptr, ptr, ptr, i32, i32, i64, i32, i32, i64, ptr, i64, ptr, i32, ptr, i32 }
%struct.AVRational = type { i32, i32 }
%struct.AVChannelLayout = type { i32, i32, %union.anon, ptr }
%union.anon = type { i64 }
%struct.AV1DecContext = type { ptr, ptr, i32, ptr, %struct.CodedBitstreamFragment, ptr, ptr, ptr, ptr, ptr, ptr, ptr, ptr, ptr, ptr, ptr, %struct.DOVIContext, ptr, i16, i16, i16, i32, [8 x %struct.AV1Frame], %struct.AV1Frame, i32, i32, i32 }
%struct.CodedBitstreamFragment = type { ptr, i64, i64, ptr, i32, i32, ptr }
%struct.DOVIContext = type { ptr, i32, %struct.AVDOVIDecoderConfigurationRecord, %struct.AVDOVIRpuDataHeader, ptr, ptr, ptr, ptr, [16 x ptr], ptr, i32 }
%struct.AVDOVIDecoderConfigurationRecord = type { i8, i8, i8, i8, i8, i8, i8, i8, i8 }
%struct.AVDOVIRpuDataHeader = type { i8, i16, i8, i8, i8, i8, i8, i8, i8, i8, i8, i8, i8, i8, i8, i8, i8 }
%struct.AV1Frame = type { %union.anon.0, ptr, ptr, ptr, i32, i32, [8 x i8], [8 x i8], [8 x [6 x i32]], [2 x i8], %struct.AV1RawFilmGrainParams, i8, i8, [8 x i8], [8 x i8], i8 }
%union.anon.0 = type { %struct.ProgressFrame }
%struct.ProgressFrame = type { ptr, ptr }
%struct.AV1RawFilmGrainParams = type { i8, i16, i8, i8, i8, [14 x i8], [14 x i8], i8, i8, [10 x i8], [10 x i8], i8, [10 x i8], [10 x i8], i8, i8, [24 x i8], [25 x i8], [25 x i8], i8, i8, i8, i8, i16, i8, i8, i16, i8, i8 }
%struct.AVCodecInternal = type { i32, i32, i32, ptr, ptr, ptr, ptr, ptr, ptr, ptr, i32, ptr, ptr, ptr, i32, i32, ptr, i32, ptr, ptr, i32, i32 }
%struct.VAAPIAV1DecContext = type { %struct.VAAPIDecodeContext, [8 x %struct.VAAPIAV1FrameRef], ptr, i32, ptr }
%struct.VAAPIDecodeContext = type { i32, i32, ptr, ptr, ptr, ptr, i32, i32, %struct._VASurfaceAttrib }
%struct._VASurfaceAttrib = type { i32, i32, %struct._VAGenericValue }
%struct._VAGenericValue = type { i32, %union.anon.17 }
%union.anon.17 = type { ptr }
%struct.VAAPIAV1FrameRef = type { ptr, i32 }
%struct._VASliceParameterBufferAV1 = type { i32, i32, i32, i16, i16, i16, i16, i8, i16, [4 x i32] }
%struct.TileGroupInfo = type { i32, i32, i16, i16 }

; Function Attrs: nounwind uwtable
define internal i32 @vaapi_av1_decode_slice(ptr noundef %0, ptr noundef %1, i32 noundef %2) #0 {
  %4 = alloca i32, align 4
  %5 = alloca ptr, align 8
  %6 = alloca ptr, align 8
  %7 = alloca i32, align 4
  %8 = alloca ptr, align 8
  %9 = alloca ptr, align 8
  %10 = alloca ptr, align 8
  %11 = alloca i32, align 4
  %12 = alloca i32, align 4
  %13 = alloca ptr, align 8
  %14 = alloca i32, align 4
  %15 = alloca i32, align 4
  %16 = alloca %struct._VASliceParameterBufferAV1, align 4
  store ptr %0, ptr %5, align 8, !tbaa !4
  store ptr %1, ptr %6, align 8, !tbaa !11
  store i32 %2, ptr %7, align 4, !tbaa !13
  call void @llvm.lifetime.start.p0(i64 8, ptr %8) #8
  %17 = load ptr, ptr %5, align 8, !tbaa !4
  %18 = getelementptr inbounds nuw %struct.AVCodecContext, ptr %17, i32 0, i32 6
  %19 = load ptr, ptr %18, align 8, !tbaa !15
  store ptr %19, ptr %8, align 8, !tbaa !32
  call void @llvm.lifetime.start.p0(i64 8, ptr %9) #8
  %20 = load ptr, ptr %8, align 8, !tbaa !32
  %21 = getelementptr inbounds nuw %struct.AV1DecContext, ptr %20, i32 0, i32 23
  %22 = getelementptr inbounds nuw %struct.AV1Frame, ptr %21, i32 0, i32 1
  %23 = load ptr, ptr %22, align 8, !tbaa !61
  store ptr %23, ptr %9, align 8, !tbaa !62
  call void @llvm.lifetime.start.p0(i64 8, ptr %10) #8
  %24 = load ptr, ptr %5, align 8, !tbaa !4
  %25 = getelementptr inbounds nuw %struct.AVCodecContext, ptr %24, i32 0, i32 7
  %26 = load ptr, ptr %25, align 8, !tbaa !64
  %27 = getelementptr inbounds nuw %struct.AVCodecInternal, ptr %26, i32 0, i32 16
  %28 = load ptr, ptr %27, align 8, !tbaa !65
  store ptr %28, ptr %10, align 8, !tbaa !71
  call void @llvm.lifetime.start.p0(i64 4, ptr %11) #8
  call void @llvm.lifetime.start.p0(i64 4, ptr %12) #8
  %29 = load ptr, ptr %8, align 8, !tbaa !32
  %30 = getelementptr inbounds nuw %struct.AV1DecContext, ptr %29, i32 0, i32 20
  %31 = load i16, ptr %30, align 4, !tbaa !247
  %32 = zext i16 %31 to i32
  %33 = load ptr, ptr %8, align 8, !tbaa !32
  %34 = getelementptr inbounds nuw %struct.AV1DecContext, ptr %33, i32 0, i32 19
  %35 = load i16, ptr %34, align 2, !tbaa !248
  %36 = zext i16 %35 to i32
  %37 = sub nsw i32 %32, %36
  %38 = add nsw i32 %37, 1
  store i32 %38, ptr %12, align 4, !tbaa !13
  %39 = load ptr, ptr %10, align 8, !tbaa !71
  %40 = getelementptr inbounds nuw %struct.VAAPIAV1DecContext, ptr %39, i32 0, i32 3
  %41 = load i32, ptr %40, align 8, !tbaa !249
  %42 = load i32, ptr %12, align 4, !tbaa !13
  %43 = icmp slt i32 %41, %42
  br i1 %43, label %44, label %66

44:                                               ; preds = %3
  call void @llvm.lifetime.start.p0(i64 8, ptr %13) #8
  %45 = load ptr, ptr %10, align 8, !tbaa !71
  %46 = getelementptr inbounds nuw %struct.VAAPIAV1DecContext, ptr %45, i32 0, i32 4
  %47 = load ptr, ptr %46, align 8, !tbaa !250
  %48 = load i32, ptr %12, align 4, !tbaa !13
  %49 = sext i32 %48 to i64
  %50 = call ptr @av_realloc_array(ptr noundef %47, i64 noundef %49, i64 noundef 40)
  store ptr %50, ptr %13, align 8, !tbaa !251
  %51 = load ptr, ptr %13, align 8, !tbaa !251
  %52 = icmp ne ptr %51, null
  br i1 %52, label %56, label %53

53:                                               ; preds = %44
  %54 = load ptr, ptr %10, align 8, !tbaa !71
  %55 = getelementptr inbounds nuw %struct.VAAPIAV1DecContext, ptr %54, i32 0, i32 3
  store i32 0, ptr %55, align 8, !tbaa !249
  store i32 -12, ptr %11, align 4, !tbaa !13
  store i32 2, ptr %14, align 4
  br label %63

56:                                               ; preds = %44
  %57 = load ptr, ptr %13, align 8, !tbaa !251
  %58 = load ptr, ptr %10, align 8, !tbaa !71
  %59 = getelementptr inbounds nuw %struct.VAAPIAV1DecContext, ptr %58, i32 0, i32 4
  store ptr %57, ptr %59, align 8, !tbaa !250
  %60 = load i32, ptr %12, align 4, !tbaa !13
  %61 = load ptr, ptr %10, align 8, !tbaa !71
  %62 = getelementptr inbounds nuw %struct.VAAPIAV1DecContext, ptr %61, i32 0, i32 3
  store i32 %60, ptr %62, align 8, !tbaa !249
  store i32 0, ptr %14, align 4
  br label %63

63:                                               ; preds = %53, %56
  call void @llvm.lifetime.end.p0(i64 8, ptr %13) #8
  %64 = load i32, ptr %14, align 4
  switch i32 %64, label %163 [
    i32 0, label %65
    i32 2, label %158
  ]

65:                                               ; preds = %63
  br label %66

66:                                               ; preds = %65, %3
  call void @llvm.lifetime.start.p0(i64 4, ptr %15) #8
  %67 = load ptr, ptr %8, align 8, !tbaa !32
  %68 = getelementptr inbounds nuw %struct.AV1DecContext, ptr %67, i32 0, i32 19
  %69 = load i16, ptr %68, align 2, !tbaa !248
  %70 = zext i16 %69 to i32
  store i32 %70, ptr %15, align 4, !tbaa !13
  br label %71

71:                                               ; preds = %140, %66
  %72 = load i32, ptr %15, align 4, !tbaa !13
  %73 = load ptr, ptr %8, align 8, !tbaa !32
  %74 = getelementptr inbounds nuw %struct.AV1DecContext, ptr %73, i32 0, i32 20
  %75 = load i16, ptr %74, align 4, !tbaa !247
  %76 = zext i16 %75 to i32
  %77 = icmp sle i32 %72, %76
  br i1 %77, label %79, label %78

78:                                               ; preds = %71
  store i32 3, ptr %14, align 4
  call void @llvm.lifetime.end.p0(i64 4, ptr %15) #8
  br label %143

79:                                               ; preds = %71
  %80 = load ptr, ptr %10, align 8, !tbaa !71
  %81 = getelementptr inbounds nuw %struct.VAAPIAV1DecContext, ptr %80, i32 0, i32 4
  %82 = load ptr, ptr %81, align 8, !tbaa !250
  %83 = load i32, ptr %15, align 4, !tbaa !13
  %84 = load ptr, ptr %8, align 8, !tbaa !32
  %85 = getelementptr inbounds nuw %struct.AV1DecContext, ptr %84, i32 0, i32 19
  %86 = load i16, ptr %85, align 2, !tbaa !248
  %87 = zext i16 %86 to i32
  %88 = sub nsw i32 %83, %87
  %89 = sext i32 %88 to i64
  %90 = getelementptr inbounds %struct._VASliceParameterBufferAV1, ptr %82, i64 %89
  %91 = getelementptr inbounds nuw %struct._VASliceParameterBufferAV1, ptr %16, i32 0, i32 0
  %92 = load ptr, ptr %8, align 8, !tbaa !32
  %93 = getelementptr inbounds nuw %struct.AV1DecContext, ptr %92, i32 0, i32 11
  %94 = load ptr, ptr %93, align 8, !tbaa !252
  %95 = load i32, ptr %15, align 4, !tbaa !13
  %96 = sext i32 %95 to i64
  %97 = getelementptr inbounds %struct.TileGroupInfo, ptr %94, i64 %96
  %98 = getelementptr inbounds nuw %struct.TileGroupInfo, ptr %97, i32 0, i32 1
  %99 = load i32, ptr %98, align 4, !tbaa !253
  store i32 %99, ptr %91, align 4, !tbaa !255
  %100 = getelementptr inbounds nuw %struct._VASliceParameterBufferAV1, ptr %16, i32 0, i32 1
  %101 = load ptr, ptr %8, align 8, !tbaa !32
  %102 = getelementptr inbounds nuw %struct.AV1DecContext, ptr %101, i32 0, i32 11
  %103 = load ptr, ptr %102, align 8, !tbaa !252
  %104 = load i32, ptr %15, align 4, !tbaa !13
  %105 = sext i32 %104 to i64
  %106 = getelementptr inbounds %struct.TileGroupInfo, ptr %103, i64 %105
  %107 = getelementptr inbounds nuw %struct.TileGroupInfo, ptr %106, i32 0, i32 0
  %108 = load i32, ptr %107, align 4, !tbaa !257
  store i32 %108, ptr %100, align 4, !tbaa !258
  %109 = getelementptr inbounds nuw %struct._VASliceParameterBufferAV1, ptr %16, i32 0, i32 2
  store i32 0, ptr %109, align 4, !tbaa !259
  %110 = getelementptr inbounds nuw %struct._VASliceParameterBufferAV1, ptr %16, i32 0, i32 3
  %111 = load ptr, ptr %8, align 8, !tbaa !32
  %112 = getelementptr inbounds nuw %struct.AV1DecContext, ptr %111, i32 0, i32 11
  %113 = load ptr, ptr %112, align 8, !tbaa !252
  %114 = load i32, ptr %15, align 4, !tbaa !13
  %115 = sext i32 %114 to i64
  %116 = getelementptr inbounds %struct.TileGroupInfo, ptr %113, i64 %115
  %117 = getelementptr inbounds nuw %struct.TileGroupInfo, ptr %116, i32 0, i32 2
  %118 = load i16, ptr %117, align 4, !tbaa !260
  store i16 %118, ptr %110, align 4, !tbaa !261
  %119 = getelementptr inbounds nuw %struct._VASliceParameterBufferAV1, ptr %16, i32 0, i32 4
  %120 = load ptr, ptr %8, align 8, !tbaa !32
  %121 = getelementptr inbounds nuw %struct.AV1DecContext, ptr %120, i32 0, i32 11
  %122 = load ptr, ptr %121, align 8, !tbaa !252
  %123 = load i32, ptr %15, align 4, !tbaa !13
  %124 = sext i32 %123 to i64
  %125 = getelementptr inbounds %struct.TileGroupInfo, ptr %122, i64 %124
  %126 = getelementptr inbounds nuw %struct.TileGroupInfo, ptr %125, i32 0, i32 3
  %127 = load i16, ptr %126, align 2, !tbaa !262
  store i16 %127, ptr %119, align 2, !tbaa !263
  %128 = getelementptr inbounds nuw %struct._VASliceParameterBufferAV1, ptr %16, i32 0, i32 5
  %129 = load ptr, ptr %8, align 8, !tbaa !32
  %130 = getelementptr inbounds nuw %struct.AV1DecContext, ptr %129, i32 0, i32 19
  %131 = load i16, ptr %130, align 2, !tbaa !248
  store i16 %131, ptr %128, align 4, !tbaa !264
  %132 = getelementptr inbounds nuw %struct._VASliceParameterBufferAV1, ptr %16, i32 0, i32 6
  %133 = load ptr, ptr %8, align 8, !tbaa !32
  %134 = getelementptr inbounds nuw %struct.AV1DecContext, ptr %133, i32 0, i32 20
  %135 = load i16, ptr %134, align 4, !tbaa !247
  store i16 %135, ptr %132, align 2, !tbaa !265
  %136 = getelementptr inbounds nuw %struct._VASliceParameterBufferAV1, ptr %16, i32 0, i32 7
  store i8 0, ptr %136, align 4, !tbaa !266
  %137 = getelementptr i8, ptr %16, i64 21
  call void @llvm.memset.p0.i64(ptr align 1 %137, i8 0, i64 1, i1 false)
  %138 = getelementptr inbounds nuw %struct._VASliceParameterBufferAV1, ptr %16, i32 0, i32 8
  store i16 0, ptr %138, align 2, !tbaa !267
  %139 = getelementptr inbounds nuw %struct._VASliceParameterBufferAV1, ptr %16, i32 0, i32 9
  call void @llvm.memset.p0.i64(ptr align 4 %139, i8 0, i64 16, i1 false)
  call void @llvm.memcpy.p0.p0.i64(ptr align 4 %90, ptr align 4 %16, i64 40, i1 false), !tbaa.struct !268
  br label %140

140:                                              ; preds = %79
  %141 = load i32, ptr %15, align 4, !tbaa !13
  %142 = add nsw i32 %141, 1
  store i32 %142, ptr %15, align 4, !tbaa !13
  br label %71, !llvm.loop !269

143:                                              ; preds = %78
  %144 = load ptr, ptr %5, align 8, !tbaa !4
  %145 = load ptr, ptr %9, align 8, !tbaa !62
  %146 = load ptr, ptr %10, align 8, !tbaa !71
  %147 = getelementptr inbounds nuw %struct.VAAPIAV1DecContext, ptr %146, i32 0, i32 4
  %148 = load ptr, ptr %147, align 8, !tbaa !250
  %149 = load i32, ptr %12, align 4, !tbaa !13
  %150 = load ptr, ptr %6, align 8, !tbaa !11
  %151 = load i32, ptr %7, align 4, !tbaa !13
  %152 = zext i32 %151 to i64
  %153 = call i32 @ff_vaapi_decode_make_slice_buffer(ptr noundef %144, ptr noundef %145, ptr noundef %148, i32 noundef %149, i64 noundef 40, ptr noundef %150, i64 noundef %152)
  store i32 %153, ptr %11, align 4, !tbaa !13
  %154 = load i32, ptr %11, align 4, !tbaa !13
  %155 = icmp ne i32 %154, 0
  br i1 %155, label %156, label %157

156:                                              ; preds = %143
  br label %158

157:                                              ; preds = %143
  store i32 0, ptr %4, align 4
  store i32 1, ptr %14, align 4
  br label %163

158:                                              ; preds = %63, %156
  %159 = load ptr, ptr %5, align 8, !tbaa !4
  %160 = load ptr, ptr %9, align 8, !tbaa !62
  %161 = call i32 @ff_vaapi_decode_cancel(ptr noundef %159, ptr noundef %160)
  %162 = load i32, ptr %11, align 4, !tbaa !13
  store i32 %162, ptr %4, align 4
  store i32 1, ptr %14, align 4
  br label %163

163:                                              ; preds = %158, %157, %63
  call void @llvm.lifetime.end.p0(i64 4, ptr %12) #8
  call void @llvm.lifetime.end.p0(i64 4, ptr %11) #8
  call void @llvm.lifetime.end.p0(i64 8, ptr %10) #8
  call void @llvm.lifetime.end.p0(i64 8, ptr %9) #8
  call void @llvm.lifetime.end.p0(i64 8, ptr %8) #8
  %164 = load i32, ptr %4, align 4
  ret i32 %164
}