; Function Attrs: nounwind uwtable
define internal i32 @vaapi_av1_decode_slice(ptr noundef %0, ptr noundef %1, i32 noundef %2) #0 {
  %4 = getelementptr inbounds nuw i8, ptr %0, i64 32
  %5 = load ptr, ptr %4, align 8, !tbaa !4
  %6 = getelementptr inbounds nuw i8, ptr %5, i64 4016
  %7 = load ptr, ptr %6, align 8, !tbaa !51
  %8 = getelementptr inbounds nuw i8, ptr %0, i64 40
  %9 = load ptr, ptr %8, align 8, !tbaa !52
  %10 = getelementptr inbounds nuw i8, ptr %9, i64 112
  %11 = load ptr, ptr %10, align 8, !tbaa !53
  %12 = getelementptr inbounds nuw i8, ptr %5, i64 404
  %13 = load i16, ptr %12, align 4, !tbaa !197
  %14 = zext i16 %13 to i32
  %15 = getelementptr inbounds nuw i8, ptr %5, i64 402
  %16 = load i16, ptr %15, align 2, !tbaa !198
  %17 = zext i16 %16 to i32
  %18 = sub nsw i32 %14, %17
  %19 = add nsw i32 %18, 1
  %20 = getelementptr inbounds nuw i8, ptr %11, i64 208
  %21 = load i32, ptr %20, align 8, !tbaa !199
  %.not = icmp sgt i32 %21, %18
  br i1 %.not, label %28, label %22

22:                                               ; preds = %3
  %23 = getelementptr inbounds nuw i8, ptr %11, i64 216
  %24 = load ptr, ptr %23, align 8, !tbaa !200
  %25 = sext i32 %19 to i64
  %26 = tail call ptr @av_realloc_array(ptr noundef %24, i64 noundef %25, i64 noundef 40) #6
  %.not49 = icmp eq ptr %26, null
  br i1 %.not49, label %27, label %.thread

.thread:                                          ; preds = %22
  store ptr %26, ptr %23, align 8, !tbaa !200
  store i32 %19, ptr %20, align 8, !tbaa !199
  %.pre = load i16, ptr %15, align 2, !tbaa !198
  %.pre58 = load i16, ptr %12, align 4, !tbaa !197
  br label %28

27:                                               ; preds = %22
  store i32 0, ptr %20, align 8, !tbaa !199
  br label %56

28:                                               ; preds = %.thread, %3
  %29 = phi i16 [ %.pre58, %.thread ], [ %13, %3 ]
  %30 = phi i16 [ %.pre, %.thread ], [ %16, %3 ]
  %.not5056 = icmp ugt i16 %30, %29
  br i1 %.not5056, label %._crit_edge, label %.lr.ph

.lr.ph:                                           ; preds = %28
  %31 = getelementptr inbounds nuw i8, ptr %11, i64 216
  %32 = getelementptr inbounds nuw i8, ptr %5, i64 128
  %33 = zext i16 %30 to i64
  br label %38

._crit_edge:                                      ; preds = %38, %28
  %34 = getelementptr inbounds nuw i8, ptr %11, i64 216
  %35 = load ptr, ptr %34, align 8, !tbaa !200
  %36 = zext i32 %2 to i64
  %37 = tail call i32 @ff_vaapi_decode_make_slice_buffer(ptr noundef nonnull %0, ptr noundef %7, ptr noundef %35, i32 noundef %19, i64 noundef 40, ptr noundef %1, i64 noundef %36) #6
  %.not51 = icmp eq i32 %37, 0
  br i1 %.not51, label %58, label %56

38:                                               ; preds = %.lr.ph, %38
  %indvars.iv = phi i64 [ %33, %.lr.ph ], [ %indvars.iv.next, %38 ]
  %39 = phi i16 [ %29, %.lr.ph ], [ %54, %38 ]
  %40 = load ptr, ptr %31, align 8, !tbaa !200
  %41 = load i16, ptr %15, align 2, !tbaa !198
  %42 = zext i16 %41 to i64
  %43 = sub nsw i64 %indvars.iv, %42
  %44 = getelementptr inbounds %struct._VASliceParameterBufferAV1, ptr %40, i64 %43
  %45 = load ptr, ptr %32, align 8, !tbaa !201
  %46 = getelementptr inbounds nuw %struct.TileGroupInfo, ptr %45, i64 %indvars.iv
  %47 = getelementptr inbounds nuw i8, ptr %46, i64 4
  %48 = load i32, ptr %47, align 4, !tbaa !202
  %49 = load i32, ptr %46, align 4, !tbaa !204
  %50 = getelementptr inbounds nuw i8, ptr %46, i64 8
  %51 = load i16, ptr %50, align 4, !tbaa !205
  %52 = getelementptr inbounds nuw i8, ptr %46, i64 10
  %53 = load i16, ptr %52, align 2, !tbaa !206
  store i32 %48, ptr %44, align 4, !tbaa !173
  %.sroa.2.0..sroa_idx = getelementptr inbounds nuw i8, ptr %44, i64 4
  store i32 %49, ptr %.sroa.2.0..sroa_idx, align 4, !tbaa !173
  %.sroa.3.0..sroa_idx = getelementptr inbounds nuw i8, ptr %44, i64 8
  store i32 0, ptr %.sroa.3.0..sroa_idx, align 4, !tbaa !173
  %.sroa.4.0..sroa_idx = getelementptr inbounds nuw i8, ptr %44, i64 12
  store i16 %51, ptr %.sroa.4.0..sroa_idx, align 4, !tbaa !174
  %.sroa.5.0..sroa_idx = getelementptr inbounds nuw i8, ptr %44, i64 14
  store i16 %53, ptr %.sroa.5.0..sroa_idx, align 2, !tbaa !174
  %.sroa.6.0..sroa_idx = getelementptr inbounds nuw i8, ptr %44, i64 16
  store i16 %41, ptr %.sroa.6.0..sroa_idx, align 4, !tbaa !174
  %.sroa.7.0..sroa_idx = getelementptr inbounds nuw i8, ptr %44, i64 18
  store i16 %39, ptr %.sroa.7.0..sroa_idx, align 2, !tbaa !174
  %.sroa.8.0..sroa_idx = getelementptr inbounds nuw i8, ptr %44, i64 20
  %indvars.iv.next = add nuw nsw i64 %indvars.iv, 1
  tail call void @llvm.memset.p0.i64(ptr noundef nonnull align 4 dereferenceable(20) %.sroa.8.0..sroa_idx, i8 0, i64 20, i1 false)
  %54 = load i16, ptr %12, align 4, !tbaa !197
  %55 = zext i16 %54 to i64
  %.not50.not = icmp samesign ult i64 %indvars.iv, %55
  br i1 %.not50.not, label %38, label %._crit_edge, !llvm.loop !207

56:                                               ; preds = %27, %._crit_edge
  %.1 = phi i32 [ -12, %27 ], [ %37, %._crit_edge ]
  %57 = tail call i32 @ff_vaapi_decode_cancel(ptr noundef nonnull %0, ptr noundef %7) #6
  br label %58

58:                                               ; preds = %._crit_edge, %56
  %.0 = phi i32 [ %.1, %56 ], [ 0, %._crit_edge ]
  ret i32 %.0
}